(lp0
(lp1
I-1
aI-1
aI-1
aI-1
aI1
aI1
aI1
aI1
aa(lp2
I1
aI-1
aI1
aI-1
aI-1
aI1
aI1
aI1
aa(lp3
I-1
aI1
aI1
aI1
aI1
aI-1
aI1
aI1
aa(lp4
I1
aI-1
aI1
aI1
aI-1
aI1
aI1
aI1
aa(lp5
I-1
aI-1
aI1
aI1
aI1
aI1
aI1
aI-1
aa(lp6
I-1
aI-1
aI-1
aI-1
aI-1
aI-1
aI-1
aI1
aa(lp7
I-1
aI1
aI1
aI1
aI1
aI-1
aI-1
aI-1
aa(lp8
I-1
aI-1
aI1
aI-1
aI1
aI-1
aI-1
aI-1
aa(lp9
I1
aI1
aI-1
aI1
aI-1
aI-1
aI-1
aI-1
aa(lp10
I-1
aI1
aI-1
aI-1
aI1
aI-1
aI-1
aI-1
aa(lp11
I1
aI1
aI1
aI-1
aI-1
aI-1
aI-1
aI1
aa(lp12
I1
aI-1
aI-1
aI-1
aI-1
aI-1
aI-1
aI-1
aa(lp13
I-1
aI-1
aI-1
aI-1
aI-1
aI1
aI1
aI-1
aa(lp14
I1
aI1
aI-1
aI-1
aI1
aI1
aI1
aI-1
aa(lp15
I1
aI1
aI-1
aI-1
aI-1
aI1
aI1
aI1
aa(lp16
I1
aI1
aI1
aI1
aI-1
aI-1
aI1
aI-1
aa(lp17
I1
aI1
aI1
aI1
aI1
aI1
aI-1
aI1
aa(lp18
I-1
aI-1
aI1
aI-1
aI1
aI-1
aI-1
aI-1
aa(lp19
I1
aI-1
aI-1
aI1
aI1
aI1
aI-1
aI1
aa(lp20
I-1
aI-1
aI-1
aI-1
aI1
aI-1
aI-1
aI1
aa(lp21
I-1
aI-1
aI-1
aI1
aI1
aI-1
aI-1
aI-1
aa(lp22
I-1
aI1
aI1
aI1
aI1
aI-1
aI-1
aI-1
aa(lp23
I-1
aI1
aI1
aI1
aI-1
aI1
aI1
aI-1
aa(lp24
I-1
aI-1
aI1
aI-1
aI-1
aI-1
aI-1
aI1
aa(lp25
I1
aI-1
aI1
aI1
aI1
aI1
aI-1
aI1
aa(lp26
I1
aI-1
aI1
aI1
aI1
aI1
aI-1
aI-1
aa(lp27
I1
aI-1
aI-1
aI1
aI1
aI-1
aI-1
aI1
aa(lp28
I-1
aI-1
aI-1
aI1
aI-1
aI-1
aI-1
aI-1
aa(lp29
I-1
aI-1
aI-1
aI1
aI1
aI-1
aI1
aI-1
aa(lp30
I-1
aI-1
aI-1
aI-1
aI-1
aI1
aI1
aI-1
aa(lp31
I-1
aI-1
aI1
aI-1
aI-1
aI-1
aI1
aI-1
aa(lp32
I-1
aI-1
aI1
aI-1
aI-1
aI1
aI1
aI-1
aa(lp33
I-1
aI1
aI1
aI1
aI-1
aI-1
aI-1
aI-1
aa(lp34
I-1
aI-1
aI1
aI1
aI-1
aI-1
aI1
aI1
aa(lp35
I1
aI1
aI-1
aI-1
aI1
aI-1
aI-1
aI1
aa(lp36
I-1
aI1
aI1
aI1
aI1
aI1
aI-1
aI-1
aa(lp37
I1
aI1
aI1
aI1
aI-1
aI-1
aI-1
aI-1
aa(lp38
I-1
aI1
aI1
aI-1
aI1
aI-1
aI-1
aI1
aa(lp39
I-1
aI-1
aI1
aI1
aI-1
aI1
aI1
aI1
aa(lp40
I1
aI-1
aI-1
aI1
aI1
aI1
aI-1
aI1
aa(lp41
I1
aI-1
aI-1
aI-1
aI-1
aI1
aI1
aI1
aa(lp42
I-1
aI-1
aI-1
aI-1
aI1
aI1
aI1
aI-1
aa(lp43
I1
aI1
aI-1
aI1
aI-1
aI-1
aI1
aI-1
aa(lp44
I-1
aI-1
aI-1
aI1
aI1
aI1
aI-1
aI-1
aa(lp45
I1
aI1
aI1
aI-1
aI1
aI-1
aI-1
aI-1
aa(lp46
I1
aI-1
aI-1
aI-1
aI-1
aI-1
aI-1
aI-1
aa(lp47
I-1
aI-1
aI-1
aI-1
aI-1
aI-1
aI-1
aI-1
aa(lp48
I-1
aI1
aI1
aI1
aI1
aI1
aI-1
aI1
aa(lp49
I-1
aI1
aI1
aI1
aI1
aI-1
aI-1
aI-1
aa(lp50
I-1
aI-1
aI1
aI1
aI1
aI-1
aI1
aI-1
aa(lp51
I1
aI-1
aI-1
aI-1
aI1
aI-1
aI-1
aI-1
aa(lp52
I1
aI1
aI1
aI1
aI1
aI1
aI-1
aI-1
aa(lp53
I1
aI1
aI1
aI1
aI-1
aI-1
aI-1
aI-1
aa(lp54
I1
aI1
aI1
aI1
aI-1
aI-1
aI-1
aI1
aa(lp55
I1
aI1
aI-1
aI1
aI-1
aI-1
aI-1
aI-1
aa(lp56
I1
aI1
aI1
aI1
aI1
aI-1
aI-1
aI1
aa(lp57
I1
aI1
aI-1
aI-1
aI1
aI1
aI-1
aI1
aa(lp58
I-1
aI-1
aI-1
aI-1
aI1
aI1
aI1
aI1
aa(lp59
I-1
aI-1
aI1
aI1
aI-1
aI1
aI-1
aI-1
aa(lp60
I-1
aI-1
aI-1
aI-1
aI-1
aI1
aI1
aI-1
aa(lp61
I-1
aI-1
aI1
aI-1
aI1
aI1
aI1
aI-1
aa(lp62
I1
aI1
aI-1
aI-1
aI-1
aI1
aI-1
aI-1
aa(lp63
I-1
aI1
aI1
aI-1
aI-1
aI1
aI-1
aI-1
aa(lp64
I1
aI1
aI1
aI1
aI-1
aI1
aI1
aI1
aa(lp65
I1
aI1
aI-1
aI1
aI1
aI1
aI1
aI1
aa(lp66
I1
aI1
aI1
aI1
aI-1
aI1
aI1
aI1
aa(lp67
I1
aI-1
aI1
aI1
aI1
aI1
aI-1
aI-1
aa(lp68
I-1
aI-1
aI1
aI-1
aI1
aI1
aI-1
aI-1
aa(lp69
I-1
aI-1
aI-1
aI-1
aI-1
aI-1
aI-1
aI-1
aa(lp70
I-1
aI-1
aI-1
aI-1
aI1
aI-1
aI-1
aI-1
aa(lp71
I-1
aI-1
aI-1
aI1
aI1
aI1
aI-1
aI-1
aa(lp72
I1
aI1
aI1
aI1
aI1
aI1
aI-1
aI1
aa(lp73
I1
aI1
aI1
aI1
aI-1
aI1
aI1
aI1
aa(lp74
I1
aI1
aI1
aI1
aI-1
aI1
aI1
aI1
aa(lp75
I1
aI1
aI-1
aI-1
aI-1
aI1
aI-1
aI-1
aa(lp76
I1
aI1
aI1
aI-1
aI1
aI-1
aI1
aI1
aa(lp77
I1
aI-1
aI-1
aI1
aI1
aI-1
aI1
aI1
aa(lp78
I-1
aI-1
aI-1
aI1
aI1
aI1
aI-1
aI1
aa(lp79
I1
aI-1
aI1
aI-1
aI-1
aI1
aI1
aI1
aa(lp80
I-1
aI1
aI-1
aI-1
aI-1
aI-1
aI1
aI1
aa(lp81
I-1
aI-1
aI-1
aI-1
aI1
aI-1
aI1
aI1
aa(lp82
I-1
aI1
aI1
aI-1
aI1
aI-1
aI-1
aI-1
aa(lp83
I-1
aI1
aI1
aI1
aI-1
aI-1
aI1
aI-1
aa(lp84
I-1
aI1
aI1
aI-1
aI-1
aI-1
aI1
aI-1
aa(lp85
I1
aI-1
aI-1
aI-1
aI-1
aI-1
aI1
aI-1
aa(lp86
I-1
aI1
aI1
aI1
aI-1
aI-1
aI1
aI-1
aa(lp87
I-1
aI1
aI1
aI-1
aI1
aI1
aI1
aI1
aa(lp88
I-1
aI1
aI1
aI1
aI1
aI-1
aI1
aI1
aa(lp89
I-1
aI1
aI1
aI1
aI1
aI1
aI1
aI-1
aa(lp90
I-1
aI1
aI1
aI1
aI1
aI1
aI1
aI-1
aa(lp91
I-1
aI1
aI1
aI1
aI-1
aI-1
aI1
aI-1
aa(lp92
I1
aI1
aI1
aI-1
aI-1
aI-1
aI-1
aI1
aa(lp93
I1
aI1
aI1
aI1
aI-1
aI-1
aI-1
aI-1
aa(lp94
I-1
aI1
aI1
aI1
aI1
aI-1
aI1
aI-1
aa(lp95
I-1
aI1
aI1
aI1
aI-1
aI-1
aI1
aI1
aa(lp96
I1
aI1
aI1
aI-1
aI1
aI-1
aI1
aI-1
aa(lp97
I1
aI-1
aI1
aI1
aI-1
aI1
aI1
aI-1
aa(lp98
I1
aI1
aI-1
aI-1
aI-1
aI1
aI1
aI1
aa(lp99
I-1
aI1
aI1
aI-1
aI-1
aI-1
aI-1
aI-1
aa(lp100
I-1
aI1
aI1
aI-1
aI1
aI-1
aI-1
aI-1
aa.